; Function Attrs: mustprogress uwtable
define internal void @"_ZNSt17_Function_handlerIFvSt8functionIFvvEEEZN4Luau8Frontend18checkQueuedModulesB5cxx11ESt8optionalINS4_15FrontendOptionsEES0_IS3_ES0_IFbmmEEE3$_1E9_M_invokeERKSt9_Any_dataOS2_"(ptr nonnull readnone align 8 captures(none) %0, ptr noundef nonnull align 8 captures(none) dereferenceable(32) %1) #5 align 2 personality ptr @__gxx_personality_v0 {
  %3 = alloca %"class.std::function.1201", align 8
  call void @llvm.lifetime.start.p0(i64 32, ptr nonnull %3)
  %4 = getelementptr inbounds nuw i8, ptr %3, i64 24
  %5 = getelementptr inbounds nuw i8, ptr %1, i64 24
  call void @llvm.memset.p0.i64(ptr noundef nonnull align 8 dereferenceable(32) %3, i8 0, i64 24, i1 false)
  %6 = load ptr, ptr %5, align 8, !tbaa !564
  store ptr %6, ptr %4, align 8, !tbaa !564
  %7 = getelementptr inbounds nuw i8, ptr %1, i64 16
  %8 = load ptr, ptr %7, align 8, !tbaa !309
  %.not.i.i.not.i.i.i = icmp eq ptr %8, null
  %9 = getelementptr inbounds nuw i8, ptr %3, i64 16
  br i1 %.not.i.i.not.i.i.i, label %10, label %_ZNKSt8functionIFvvEEclEv.exit.i.i.i

10:                                               ; preds = %2
  invoke void @_ZSt25__throw_bad_function_callv() #32
          to label %.noexc.i.i unwind label %17

.noexc.i.i:                                       ; preds = %10
  unreachable

_ZNKSt8functionIFvvEEclEv.exit.i.i.i:             ; preds = %2
  call void @llvm.memcpy.p0.p0.i64(ptr noundef nonnull align 8 dereferenceable(32) %3, ptr noundef nonnull align 8 dereferenceable(32) %1, i64 16, i1 false), !tbaa.struct !315
  store ptr %8, ptr %9, align 8, !tbaa !309
  tail call void @llvm.memset.p0.i64(ptr noundef nonnull align 8 dereferenceable(16) %7, i8 0, i64 16, i1 false)
  invoke void %6(ptr noundef nonnull align 8 dereferenceable(32) %3)
          to label %"_ZZN4Luau8Frontend18checkQueuedModulesB5cxx11ESt8optionalINS_15FrontendOptionsEESt8functionIFvS4_IFvvEEEES4_IFbmmEEENK3$_1clES6_.exit.i.i" unwind label %17

"_ZZN4Luau8Frontend18checkQueuedModulesB5cxx11ESt8optionalINS_15FrontendOptionsEESt8functionIFvS4_IFvvEEEES4_IFbmmEEENK3$_1clES6_.exit.i.i": ; preds = %_ZNKSt8functionIFvvEEclEv.exit.i.i.i
  %11 = load ptr, ptr %9, align 8, !tbaa !309
  %.not.i.i.i = icmp eq ptr %11, null
  br i1 %.not.i.i.i, label %"_ZSt10__invoke_rIvRZN4Luau8Frontend18checkQueuedModulesB5cxx11ESt8optionalINS0_15FrontendOptionsEESt8functionIFvS5_IFvvEEEES5_IFbmmEEE3$_1JS7_EENSt9enable_ifIX16is_invocable_r_vIT_T0_DpT1_EESF_E4typeEOSG_DpOSH_.exit", label %12

12:                                               ; preds = %"_ZZN4Luau8Frontend18checkQueuedModulesB5cxx11ESt8optionalINS_15FrontendOptionsEESt8functionIFvS4_IFvvEEEES4_IFbmmEEENK3$_1clES6_.exit.i.i"
  %13 = invoke noundef zeroext i1 %11(ptr noundef nonnull align 8 dereferenceable(32) %3, ptr noundef nonnull align 8 dereferenceable(32) %3, i32 noundef 3)
          to label %"_ZSt10__invoke_rIvRZN4Luau8Frontend18checkQueuedModulesB5cxx11ESt8optionalINS0_15FrontendOptionsEESt8functionIFvS5_IFvvEEEES5_IFbmmEEE3$_1JS7_EENSt9enable_ifIX16is_invocable_r_vIT_T0_DpT1_EESF_E4typeEOSG_DpOSH_.exit" unwind label %14

14:                                               ; preds = %12
  %15 = landingpad { ptr, i32 }
          catch ptr null
  %16 = extractvalue { ptr, i32 } %15, 0
  call void @__clang_call_terminate(ptr %16) #29
  unreachable

17:                                               ; preds = %_ZNKSt8functionIFvvEEclEv.exit.i.i.i, %10
  %18 = landingpad { ptr, i32 }
          cleanup
  %19 = load ptr, ptr %9, align 8, !tbaa !309
  %.not.i4.i.i = icmp eq ptr %19, null
  br i1 %.not.i4.i.i, label %_ZNSt14_Function_baseD2Ev.exit5.i.i, label %20

20:                                               ; preds = %17
  %21 = invoke noundef zeroext i1 %19(ptr noundef nonnull align 8 dereferenceable(32) %3, ptr noundef nonnull align 8 dereferenceable(32) %3, i32 noundef 3)
          to label %_ZNSt14_Function_baseD2Ev.exit5.i.i unwind label %22

22:                                               ; preds = %20
  %23 = landingpad { ptr, i32 }
          catch ptr null
  %24 = extractvalue { ptr, i32 } %23, 0
  call void @__clang_call_terminate(ptr %24) #29
  unreachable

_ZNSt14_Function_baseD2Ev.exit5.i.i:              ; preds = %20, %17
  resume { ptr, i32 } %18

"_ZSt10__invoke_rIvRZN4Luau8Frontend18checkQueuedModulesB5cxx11ESt8optionalINS0_15FrontendOptionsEESt8functionIFvS5_IFvvEEEES5_IFbmmEEE3$_1JS7_EENSt9enable_ifIX16is_invocable_r_vIT_T0_DpT1_EESF_E4typeEOSG_DpOSH_.exit": ; preds = %"_ZZN4Luau8Frontend18checkQueuedModulesB5cxx11ESt8optionalINS_15FrontendOptionsEESt8functionIFvS4_IFvvEEEES4_IFbmmEEENK3$_1clES6_.exit.i.i", %12
  call void @llvm.lifetime.end.p0(i64 32, ptr nonnull %3)
  ret void
}